(dp1
S'output'
p2
S"<type 'exceptions.AttributeError'> 'Table' object has no attribute 'order_if'"
p3
sS'layer'
p4
S'/Users/Barton/Downloads/web2py/web2py.app/Contents/Resources/applications/sfitz/models/db.py'
p5
sS'code'
p6
S'db = DAL("sqlite://storage.sqlite")\n\ndb.define_table(\'item\',\n                Field(\'title\'),\n                Field(\'Material\'),\n                Field(\'price\', \'double\'),\n                Field(\'file\', \'upload\'),\n                Field(\'sold\', \'boolean\'),\n                Field(\'shipping\'),\n                Field(\'description\', \'text\'),\n                Field(\'care\', \'text\'))\n\ndb.define_table(\'orderform\',\n                Field(\'item_id\', \'reference item\'),\n                Field(\'name\'),\n                Field(\'address\'),\n                Field(\'address_line_2\'),\n                Field(\'city\'),\n                Field(\'state\'),\n                Field(\'zip\'))\n\ndb.define_table(\'pastorder\',\n                Field(\'item_id\', \'reference item\'),\n                Field(\'order_id\', \'reference orderform\'),\n                Field(\'shipped\', \'boolean\'))\n\n\ndb.orderform.item_id.requires = IS_IN_DB(db, db.item.id, \'%(item_id)s\')\ndb.pastorder.item_id.requires = IS_IN_DB(db, db.item.id, \'%(item_id)s\')\ndb.pastorder.order_if.requires = IS_IN_DB(db, db.orderform.id, \'%(item_id)s\')\n\ndb.orderform.name.requires = IS_NOT_EMPTY()\ndb.orderform.address.requires = IS_NOT_EMPTY()\ndb.orderform.city.requires = IS_NOT_EMPTY()\ndb.orderform.state.requires = IS_NOT_EMPTY()\ndb.orderform.zip.requires = IS_NOT_EMPTY()\n\ndb.orderform.item_id.writable = db.orderform.item_id.readable = False\ndb.pastorder.shipped.writable = db.pastorder.shipped.readable = False\n'
p7
sS'snapshot'
p8
(dp9
S'exception'
p10
(dp11
S'__hash__'
p12
S"<method-wrapper '__hash__' of exceptions.AttributeError object>"
p13
sS'__setattr__'
p14
S"<method-wrapper '__setattr__' of exceptions.AttributeError object>"
p15
sS'__reduce_ex__'
p16
S'<built-in method __reduce_ex__ of exceptions.AttributeError object>'
p17
sS'__getslice__'
p18
S"<method-wrapper '__getslice__' of exceptions.AttributeError object>"
p19
sS'__getitem__'
p20
S"<method-wrapper '__getitem__' of exceptions.AttributeError object>"
p21
sS'__setstate__'
p22
S'<built-in method __setstate__ of exceptions.AttributeError object>'
p23
sS'args'
p24
S'("\'Table\' object has no attribute \'order_if\'",)'
p25
sS'__reduce__'
p26
S'<built-in method __reduce__ of exceptions.AttributeError object>'
p27
sS'__str__'
p28
S"<method-wrapper '__str__' of exceptions.AttributeError object>"
p29
sS'__format__'
p30
S'<built-in method __format__ of exceptions.AttributeError object>'
p31
sS'__getattribute__'
p32
S"<method-wrapper '__getattribute__' of exceptions.AttributeError object>"
p33
sS'__class__'
p34
S"<type 'exceptions.AttributeError'>"
p35
sS'__unicode__'
p36
S'<built-in method __unicode__ of exceptions.AttributeError object>'
p37
sS'__delattr__'
p38
S"<method-wrapper '__delattr__' of exceptions.AttributeError object>"
p39
sS'__subclasshook__'
p40
S'<built-in method __subclasshook__ of type object>'
p41
sS'__repr__'
p42
S"<method-wrapper '__repr__' of exceptions.AttributeError object>"
p43
sS'__dict__'
p44
S'{}'
p45
sS'__sizeof__'
p46
S'<built-in method __sizeof__ of exceptions.AttributeError object>'
p47
sS'__doc__'
p48
S"'Attribute not found.'"
p49
sS'__init__'
p50
S"<method-wrapper '__init__' of exceptions.AttributeError object>"
p51
sS'__new__'
p52
S'<built-in method __new__ of type object>'
p53
ssS'evalue'
p54
S"'Table' object has no attribute 'order_if'"
p55
sS'request'
p56
cgluon.html
XML_unpickle
p57
(S's3a\x00\x00<div><table><tr><td style="font-weight:bold;vertical-align:top;">ajax</td><td style="vertical-align:top;">:</td><td><div>True</div></td></tr><tr><td style="font-weight:bold;vertical-align:top;">application</td><td style="vertical-align:top;">:</td><td><div>sfitz</div></td></tr><tr><td style="font-weight:bold;vertical-align:top;">args</td><td style="vertical-align:top;">:</td><td><div><table></table></div></td></tr><tr><td style="font-weight:bold;vertical-align:top;">cid</td><td style="vertical-align:top;">:</td><td><div>c265552868571</div></td></tr><tr><td style="font-weight:bold;vertical-align:top;">client</td><td style="vertical-align:top;">:</td><td><div>127.0.0.1</div></td></tr><tr><td style="font-weight:bold;vertical-align:top;">controller</td><td style="vertical-align:top;">:</td><td><div>appadmin</div></td></tr><tr><td style="font-weight:bold;vertical-align:top;">cookies</td><td style="vertical-align:top;">:</td><td><div><table><tr><td style="font-weight:bold;vertical-align:top;">session_id_admin</td><td style="vertical-align:top;">:</td><td><div>127.0.0.1-d21a013f-e03e-4015-9a9a-2492f93b0b22<table><tr><td style="font-weight:bold;vertical-align:top;">comment</td><td style="vertical-align:top;">:</td><td><div></div></td></tr><tr><td style="font-weight:bold;vertical-align:top;">domain</td><td style="vertical-align:top;">:</td><td><div></div></td></tr><tr><td style="font-weight:bold;vertical-align:top;">expires</td><td style="vertical-align:top;">:</td><td><div></div></td></tr><tr><td style="font-weight:bold;vertical-align:top;">httponly</td><td style="vertical-align:top;">:</td><td><div></div></td></tr><tr><td style="font-weight:bold;vertical-align:top;">max-age</td><td style="vertical-align:top;">:</td><td><div></div></td></tr><tr><td style="font-weight:bold;vertical-align:top;">path</td><td style="vertical-align:top;">:</td><td><div></div></td></tr><tr><td style="font-weight:bold;vertical-align:top;">secure</td><td style="vertical-align:top;">:</td><td><div></div></td></tr><tr><td style="font-weight:bold;vertical-align:top;">version</td><td style="vertical-align:top;">:</td><td><div></div></td></tr></table></div></td></tr><tr><td style="font-weight:bold;vertical-align:top;">session_id_sfitz</td><td style="vertical-align:top;">:</td><td><div>127.0.0.1-5e561e01-ba20-40ef-99d6-8794d72e4500<table><tr><td style="font-weight:bold;vertical-align:top;">comment</td><td style="vertical-align:top;">:</td><td><div></div></td></tr><tr><td style="font-weight:bold;vertical-align:top;">domain</td><td style="vertical-align:top;">:</td><td><div></div></td></tr><tr><td style="font-weight:bold;vertical-align:top;">expires</td><td style="vertical-align:top;">:</td><td><div></div></td></tr><tr><td style="font-weight:bold;vertical-align:top;">httponly</td><td style="vertical-align:top;">:</td><td><div></div></td></tr><tr><td style="font-weight:bold;vertical-align:top;">max-age</td><td style="vertical-align:top;">:</td><td><div></div></td></tr><tr><td style="font-weight:bold;vertical-align:top;">path</td><td style="vertical-align:top;">:</td><td><div></div></td></tr><tr><td style="font-weight:bold;vertical-align:top;">secure</td><td style="vertical-align:top;">:</td><td><div></div></td></tr><tr><td style="font-weight:bold;vertical-align:top;">version</td><td style="vertical-align:top;">:</td><td><div></div></td></tr></table></div></td></tr><tr><td style="font-weight:bold;vertical-align:top;">session_id_thingder</td><td style="vertical-align:top;">:</td><td><div>127.0.0.1-0868616e-f540-4d8d-acbb-508a4e7e77b7<table><tr><td style="font-weight:bold;vertical-align:top;">comment</td><td style="vertical-align:top;">:</td><td><div></div></td></tr><tr><td style="font-weight:bold;vertical-align:top;">domain</td><td style="vertical-align:top;">:</td><td><div></div></td></tr><tr><td style="font-weight:bold;vertical-align:top;">expires</td><td style="vertical-align:top;">:</td><td><div></div></td></tr><tr><td style="font-weight:bold;vertical-align:top;">httponly</td><td style="vertical-align:top;">:</td><td><div></div></td></tr><tr><td style="font-weight:bold;vertical-align:top;">max-age</td><td style="vertical-align:top;">:</td><td><div></div></td></tr><tr><td style="font-weight:bold;vertical-align:top;">path</td><td style="vertical-align:top;">:</td><td><div></div></td></tr><tr><td style="font-weight:bold;vertical-align:top;">secure</td><td style="vertical-align:top;">:</td><td><div></div></td></tr><tr><td style="font-weight:bold;vertical-align:top;">version</td><td style="vertical-align:top;">:</td><td><div></div></td></tr></table></div></td></tr></table></div></td></tr><tr><td style="font-weight:bold;vertical-align:top;">env</td><td style="vertical-align:top;">:</td><td><div><table><tr><td style="font-weight:bold;vertical-align:top;">HTTP_ACCEPT</td><td style="vertical-align:top;">:</td><td><div>*/*</div></td></tr><tr><td style="font-weight:bold;vertical-align:top;">HTTP_ACCEPT_ENCODING</td><td style="vertical-align:top;">:</td><td><div>gzip, deflate, sdch, br</div></td></tr><tr><td style="font-weight:bold;vertical-align:top;">HTTP_ACCEPT_LANGUAGE</td><td style="vertical-align:top;">:</td><td><div>en-US,en;q=0.8</div></td></tr><tr><td style="font-weight:bold;vertical-align:top;">HTTP_CONNECTION</td><td style="vertical-align:top;">:</td><td><div>keep-alive</div></td></tr><tr><td style="font-weight:bold;vertical-align:top;">HTTP_COOKIE</td><td style="vertical-align:top;">:</td><td><div>session_id_thingder=127.0.0.1-0868616e-f540-4d8d-acbb-508a4e7e77b7; session_id_sfitz=127.0.0.1-5e561e01-ba20-40ef-99d6-8794d72e4500; session_id_admin=127.0.0.1-d21a013f-e03e-4015-9a9a-2492f93b0b22</div></td></tr><tr><td style="font-weight:bold;vertical-align:top;">HTTP_HOST</td><td style="vertical-align:top;">:</td><td><div>127.0.0.1:8000</div></td></tr><tr><td style="font-weight:bold;vertical-align:top;">HTTP_REFERER</td><td style="vertical-align:top;">:</td><td><div>http://127.0.0.1:8000/admin/default/edit/sfitz/models/db.py?id=models__db__py</div></td></tr><tr><td style="font-weight:bold;vertical-align:top;">HTTP_USER_AGENT</td><td style="vertical-align:top;">:</td><td><div>Mozilla/5.0 (Macintosh; Intel Mac OS X 10_9_5) AppleWebKit/537.36 (KHTML, like Gecko) Chrome/55.0.2883.95 Safari/537.36</div></td></tr><tr><td style="font-weight:bold;vertical-align:top;">HTTP_WEB2PY_COMPONENT_ELEMENT</td><td style="vertical-align:top;">:</td><td><div>c265552868571</div></td></tr><tr><td style="font-weight:bold;vertical-align:top;">HTTP_WEB2PY_COMPONENT_LOCATION</td><td style="vertical-align:top;">:</td><td><div>http://127.0.0.1:8000/admin/default/edit/sfitz/models/db.py?id=models__db__py</div></td></tr><tr><td style="font-weight:bold;vertical-align:top;">HTTP_X_REQUESTED_WITH</td><td style="vertical-align:top;">:</td><td><div>XMLHttpRequest</div></td></tr><tr><td style="font-weight:bold;vertical-align:top;">PATH_INFO</td><td style="vertical-align:top;">:</td><td><div>/sfitz/appadmin/hooks</div></td></tr><tr><td style="font-weight:bold;vertical-align:top;">QUERY_STRING</td><td style="vertical-align:top;">:</td><td><div></div></td></tr><tr><td style="font-weight:bold;vertical-align:top;">REMOTE_ADDR</td><td style="vertical-align:top;">:</td><td><div>127.0.0.1</div></td></tr><tr><td style="font-weight:bold;vertical-align:top;">REMOTE_PORT</td><td style="vertical-align:top;">:</td><td><div>52512</div></td></tr><tr><td style="font-weight:bold;vertical-align:top;">REQUEST_METHOD</td><td style="vertical-align:top;">:</td><td><div>GET</div></td></tr><tr><td style="font-weight:bold;vertical-align:top;">SCRIPT_NAME</td><td style="vertical-align:top;">:</td><td><div></div></td></tr><tr><td style="font-weight:bold;vertical-align:top;">SERVER_NAME</td><td style="vertical-align:top;">:</td><td><div>Elizabeths-MacBook-Pro.local</div></td></tr><tr><td style="font-weight:bold;vertical-align:top;">SERVER_PORT</td><td style="vertical-align:top;">:</td><td><div>8000</div></td></tr><tr><td style="font-weight:bold;vertical-align:top;">SERVER_PROTOCOL</td><td style="vertical-align:top;">:</td><td><div>HTTP/1.1</div></td></tr><tr><td style="font-weight:bold;vertical-align:top;">SERVER_SOFTWARE</td><td style="vertical-align:top;">:</td><td><div>Rocket 1.2.6</div></td></tr><tr><td style="font-weight:bold;vertical-align:top;">app_folders</td><td style="vertical-align:top;">:</td><td><div>set([&#x27;/Users/Barton/Downloads/web2py/web2py.app/Contents/Resources/applications/sfitz/&#x27;, &#x27;/Users/Barton/Downloads/web2py/web2py.app/Contents/Resources/applications/admin/&#x27;])</div></td></tr><tr><td style="font-weight:bold;vertical-align:top;">applications_parent</td><td style="vertical-align:top;">:</td><td><div>/Users/Barton/Downloads/web2py/web2py.app/Contents/Resources</div></td></tr><tr><td style="font-weight:bold;vertical-align:top;">cmd_args</td><td style="vertical-align:top;">:</td><td><div><table></table></div></td></tr><tr><td style="font-weight:bold;vertical-align:top;">cmd_options</td><td style="vertical-align:top;">:</td><td><div>&lt;Values at 0x103a64ea8: {&#x27;verbose&#x27;: False, &#x27;ip&#x27;: &#x27;127.0.0.1&#x27;, &#x27;debuglevel&#x27;: 30, &#x27;with_scheduler&#x27;: False, &#x27;ips&#x27;: [&#x27;fe80::7ed1:c3ff:fe90:5ac0%en1&#x27;, &#x27;172.16.42.4&#x27;], &#x27;shutdown_timeout&#x27;: 5, &#x27;taskbar&#x27;: False, &#x27;with_coverage&#x27;: False, &#x27;scheduler_groups&#x27;: None, &#x27;port&#x27;: 8000, &#x27;maxthreads&#x27;: None, &#x27;softcron&#x27;: False, &#x27;server_name&#x27;: &#x27;Elizabeths-MacBook-Pro.local&#x27;, &#x27;bpython&#x27;: False, &#x27;nogui&#x27;: False, &#x27;pid_filename&#x27;: &#x27;httpserver.pid&#x27;, &#x27;print_errors&#x27;: False, &#x27;extcron&#x27;: False, &#x27;runcron&#x27;: False, &#x27;run_system_tests&#x27;: False, &#x27;test&#x27;: None, &#x27;folder&#x27;: &#x27;/Users/Barton/Downloads/web2py/web2py.app/Contents/Resources&#x27;, &#x27;config&#x27;: &#x27;&#x27;, &#x27;minthreads&#x27;: None, &#x27;shell&#x27;: None, &#x27;run&#x27;: &#x27;&#x27;, &#x27;log_filename&#x27;: &#x27;httpserver.log&#x27;, &#x27;profiler_dir&#x27;: None, &#x27;args&#x27;: [&#x27;&#x27;], &#x27;socket_timeout&#x27;: 5, &#x27;ssl_ca_certificate&#x27;: None, &#x27;scheduler&#x27;: None, &#x27;interfaces&#x27;: None, &#x27;ssl_private_key&#x27;: &#x27;&#x27;, &#x27;gae&#x27;: None, &#x27;password&#x27;: &#x27;&lt;ask&gt;&#x27;, &#x27;request_queue_size&#x27;: 5, &#x27;ssl_certificate&#x27;: &#x27;&#x27;, &#x27;cronjob&#x27;: False, &#x27;numthreads&#x27;: None, &#x27;quiet&#x27;: False, &#x27;import_models&#x27;: False, &#x27;timeout&#x27;: 10, &#x27;plain&#x27;: False, &#x27;nobanner&#x27;: False}&gt;</div></td></tr><tr><td style="font-weight:bold;vertical-align:top;">db_sessions</td><td style="vertical-align:top;">:</td><td><div>set([])</div></td></tr><tr><td style="font-weight:bold;vertical-align:top;">debugging</td><td style="vertical-align:top;">:</td><td><div>True</div></td></tr><tr><td style="font-weight:bold;vertical-align:top;">gluon_parent</td><td style="vertical-align:top;">:</td><td><div>/Users/Barton/Downloads/web2py/web2py.app/Contents/Resources</div></td></tr><tr><td style="font-weight:bold;vertical-align:top;">http_accept</td><td style="vertical-align:top;">:</td><td><div>*/*</div></td></tr><tr><td style="font-weight:bold;vertical-align:top;">http_accept_encoding</td><td style="vertical-align:top;">:</td><td><div>gzip, deflate, sdch, br</div></td></tr><tr><td style="font-weight:bold;vertical-align:top;">http_accept_language</td><td style="vertical-align:top;">:</td><td><div>en-US,en;q=0.8</div></td></tr><tr><td style="font-weight:bold;vertical-align:top;">http_connection</td><td style="vertical-align:top;">:</td><td><div>keep-alive</div></td></tr><tr><td style="font-weight:bold;vertical-align:top;">http_cookie</td><td style="vertical-align:top;">:</td><td><div>session_id_thingder=127.0.0.1-0868616e-f540-4d8d-acbb-508a4e7e77b7; session_id_sfitz=127.0.0.1-5e561e01-ba20-40ef-99d6-8794d72e4500; session_id_admin=127.0.0.1-d21a013f-e03e-4015-9a9a-2492f93b0b22</div></td></tr><tr><td style="font-weight:bold;vertical-align:top;">http_host</td><td style="vertical-align:top;">:</td><td><div>127.0.0.1:8000</div></td></tr><tr><td style="font-weight:bold;vertical-align:top;">http_referer</td><td style="vertical-align:top;">:</td><td><div>http://127.0.0.1:8000/admin/default/edit/sfitz/models/db.py?id=models__db__py</div></td></tr><tr><td style="font-weight:bold;vertical-align:top;">http_user_agent</td><td style="vertical-align:top;">:</td><td><div>Mozilla/5.0 (Macintosh; Intel Mac OS X 10_9_5) AppleWebKit/537.36 (KHTML, like Gecko) Chrome/55.0.2883.95 Safari/537.36</div></td></tr><tr><td style="font-weight:bold;vertical-align:top;">http_web2py_component_element</td><td style="vertical-align:top;">:</td><td><div>c265552868571</div></td></tr><tr><td style="font-weight:bold;vertical-align:top;">http_web2py_component_location</td><td style="vertical-align:top;">:</td><td><div>http://127.0.0.1:8000/admin/default/edit/sfitz/models/db.py?id=models__db__py</div></td></tr><tr><td style="font-weight:bold;vertical-align:top;">http_x_requested_with</td><td style="vertical-align:top;">:</td><td><div>XMLHttpRequest</div></td></tr><tr><td style="font-weight:bold;vertical-align:top;">is_jython</td><td style="vertical-align:top;">:</td><td><div>False</div></td></tr><tr><td style="font-weight:bold;vertical-align:top;">is_pypy</td><td style="vertical-align:top;">:</td><td><div>False</div></td></tr><tr><td style="font-weight:bold;vertical-align:top;">is_source</td><td style="vertical-align:top;">:</td><td><div>True</div></td></tr><tr><td style="font-weight:bold;vertical-align:top;">local_hosts</td><td style="vertical-align:top;">:</td><td><div><table><tr><td><div>fe80::7ed1:c3ff:fe90:5ac0%en1</div></td></tr><tr><td><div>172.16.42.4</div></td></tr><tr><td><div>Elizabeths-MacBook-Pro.local</div></td></tr><tr><td><div>::ffff:127.0.0.1</div></td></tr><tr><td><div>::1</div></td></tr><tr><td><div>127.0.0.1</div></td></tr></table></div></td></tr><tr><td style="font-weight:bold;vertical-align:top;">path_info</td><td style="vertical-align:top;">:</td><td><div>/sfitz/appadmin/hooks</div></td></tr><tr><td style="font-weight:bold;vertical-align:top;">query_string</td><td style="vertical-align:top;">:</td><td><div></div></td></tr><tr><td style="font-weight:bold;vertical-align:top;">remote_addr</td><td style="vertical-align:top;">:</td><td><div>127.0.0.1</div></td></tr><tr><td style="font-weight:bold;vertical-align:top;">remote_port</td><td style="vertical-align:top;">:</td><td><div>52512</div></td></tr><tr><td style="font-weight:bold;vertical-align:top;">request_method</td><td style="vertical-align:top;">:</td><td><div>GET</div></td></tr><tr><td style="font-weight:bold;vertical-align:top;">request_uri</td><td style="vertical-align:top;">:</td><td><div>/sfitz/appadmin/hooks</div></td></tr><tr><td style="font-weight:bold;vertical-align:top;">script_name</td><td style="vertical-align:top;">:</td><td><div></div></td></tr><tr><td style="font-weight:bold;vertical-align:top;">server_name</td><td style="vertical-align:top;">:</td><td><div>Elizabeths-MacBook-Pro.local</div></td></tr><tr><td style="font-weight:bold;vertical-align:top;">server_port</td><td style="vertical-align:top;">:</td><td><div>8000</div></td></tr><tr><td style="font-weight:bold;vertical-align:top;">server_protocol</td><td style="vertical-align:top;">:</td><td><div>HTTP/1.1</div></td></tr><tr><td style="font-weight:bold;vertical-align:top;">server_software</td><td style="vertical-align:top;">:</td><td><div>Rocket 1.2.6</div></td></tr><tr><td style="font-weight:bold;vertical-align:top;">web2py_path</td><td style="vertical-align:top;">:</td><td><div>/Users/Barton/Downloads/web2py/web2py.app/Contents/Resources</div></td></tr><tr><td style="font-weight:bold;vertical-align:top;">web2py_version</td><td style="vertical-align:top;">:</td><td><div>2.13.4-stable+timestamp.2015.12.26.04.59.39</div></td></tr><tr><td style="font-weight:bold;vertical-align:top;">wsgi.errors</td><td style="vertical-align:top;">:</td><td><div>&lt;open file &#x27;&lt;stderr&gt;&#x27;, mode &#x27;w&#x27; at 0x100765270&gt;</div></td></tr><tr><td style="font-weight:bold;vertical-align:top;">wsgi.file_wrapper</td><td style="vertical-align:top;">:</td><td><div>&lt;class wsgiref.util.FileWrapper at 0x103a94328&gt;</div></td></tr><tr><td style="font-weight:bold;vertical-align:top;">wsgi.input</td><td style="vertical-align:top;">:</td><td><div>&lt;socket._fileobject object at 0x108f84150&gt;</div></td></tr><tr><td style="font-weight:bold;vertical-align:top;">wsgi.multiprocess</td><td style="vertical-align:top;">:</td><td><div>False</div></td></tr><tr><td style="font-weight:bold;vertical-align:top;">wsgi.multithread</td><td style="vertical-align:top;">:</td><td><div>True</div></td></tr><tr><td style="font-weight:bold;vertical-align:top;">wsgi.run_once</td><td style="vertical-align:top;">:</td><td><div>False</div></td></tr><tr><td style="font-weight:bold;vertical-align:top;">wsgi.url_scheme</td><td style="vertical-align:top;">:</td><td><div>http</div></td></tr><tr><td style="font-weight:bold;vertical-align:top;">wsgi.version</td><td style="vertical-align:top;">:</td><td><div><table><tr><td><div>1</div></td></tr><tr><td><div>0</div></td></tr></table></div></td></tr><tr><td style="font-weight:bold;vertical-align:top;">wsgi_errors</td><td style="vertical-align:top;">:</td><td><div>&lt;open file &#x27;&lt;stderr&gt;&#x27;, mode &#x27;w&#x27; at 0x100765270&gt;</div></td></tr><tr><td style="font-weight:bold;vertical-align:top;">wsgi_file_wrapper</td><td style="vertical-align:top;">:</td><td><div>&lt;class wsgiref.util.FileWrapper at 0x103a94328&gt;</div></td></tr><tr><td style="font-weight:bold;vertical-align:top;">wsgi_input</td><td style="vertical-align:top;">:</td><td><div>&lt;socket._fileobject object at 0x108f84150&gt;</div></td></tr><tr><td style="font-weight:bold;vertical-align:top;">wsgi_multiprocess</td><td style="vertical-align:top;">:</td><td><div>False</div></td></tr><tr><td style="font-weight:bold;vertical-align:top;">wsgi_multithread</td><td style="vertical-align:top;">:</td><td><div>True</div></td></tr><tr><td style="font-weight:bold;vertical-align:top;">wsgi_run_once</td><td style="vertical-align:top;">:</td><td><div>False</div></td></tr><tr><td style="font-weight:bold;vertical-align:top;">wsgi_url_scheme</td><td style="vertical-align:top;">:</td><td><div>http</div></td></tr><tr><td style="font-weight:bold;vertical-align:top;">wsgi_version</td><td style="vertical-align:top;">:</td><td><div><table><tr><td><div>1</div></td></tr><tr><td><div>0</div></td></tr></table></div></td></tr></table></div></td></tr><tr><td style="font-weight:bold;vertical-align:top;">extension</td><td style="vertical-align:top;">:</td><td><div>html</div></td></tr><tr><td style="font-weight:bold;vertical-align:top;">folder</td><td style="vertical-align:top;">:</td><td><div>/Users/Barton/Downloads/web2py/web2py.app/Contents/Resources/applications/sfitz/</div></td></tr><tr><td style="font-weight:bold;vertical-align:top;">function</td><td style="vertical-align:top;">:</td><td><div>hooks</div></td></tr><tr><td style="font-weight:bold;vertical-align:top;">global_settings</td><td style="vertical-align:top;">:</td><td><div><table><tr><td style="font-weight:bold;vertical-align:top;">app_folders</td><td style="vertical-align:top;">:</td><td><div>set([&#x27;/Users/Barton/Downloads/web2py/web2py.app/Contents/Resources/applications/sfitz/&#x27;, &#x27;/Users/Barton/Downloads/web2py/web2py.app/Contents/Resources/applications/admin/&#x27;])</div></td></tr><tr><td style="font-weight:bold;vertical-align:top;">applications_parent</td><td style="vertical-align:top;">:</td><td><div>/Users/Barton/Downloads/web2py/web2py.app/Contents/Resources</div></td></tr><tr><td style="font-weight:bold;vertical-align:top;">cmd_args</td><td style="vertical-align:top;">:</td><td><div><table></table></div></td></tr><tr><td style="font-weight:bold;vertical-align:top;">cmd_options</td><td style="vertical-align:top;">:</td><td><div>&lt;Values at 0x103a64ea8: {&#x27;verbose&#x27;: False, &#x27;ip&#x27;: &#x27;127.0.0.1&#x27;, &#x27;debuglevel&#x27;: 30, &#x27;with_scheduler&#x27;: False, &#x27;ips&#x27;: [&#x27;fe80::7ed1:c3ff:fe90:5ac0%en1&#x27;, &#x27;172.16.42.4&#x27;], &#x27;shutdown_timeout&#x27;: 5, &#x27;taskbar&#x27;: False, &#x27;with_coverage&#x27;: False, &#x27;scheduler_groups&#x27;: None, &#x27;port&#x27;: 8000, &#x27;maxthreads&#x27;: None, &#x27;softcron&#x27;: False, &#x27;server_name&#x27;: &#x27;Elizabeths-MacBook-Pro.local&#x27;, &#x27;bpython&#x27;: False, &#x27;nogui&#x27;: False, &#x27;pid_filename&#x27;: &#x27;httpserver.pid&#x27;, &#x27;print_errors&#x27;: False, &#x27;extcron&#x27;: False, &#x27;runcron&#x27;: False, &#x27;run_system_tests&#x27;: False, &#x27;test&#x27;: None, &#x27;folder&#x27;: &#x27;/Users/Barton/Downloads/web2py/web2py.app/Contents/Resources&#x27;, &#x27;config&#x27;: &#x27;&#x27;, &#x27;minthreads&#x27;: None, &#x27;shell&#x27;: None, &#x27;run&#x27;: &#x27;&#x27;, &#x27;log_filename&#x27;: &#x27;httpserver.log&#x27;, &#x27;profiler_dir&#x27;: None, &#x27;args&#x27;: [&#x27;&#x27;], &#x27;socket_timeout&#x27;: 5, &#x27;ssl_ca_certificate&#x27;: None, &#x27;scheduler&#x27;: None, &#x27;interfaces&#x27;: None, &#x27;ssl_private_key&#x27;: &#x27;&#x27;, &#x27;gae&#x27;: None, &#x27;password&#x27;: &#x27;&lt;ask&gt;&#x27;, &#x27;request_queue_size&#x27;: 5, &#x27;ssl_certificate&#x27;: &#x27;&#x27;, &#x27;cronjob&#x27;: False, &#x27;numthreads&#x27;: None, &#x27;quiet&#x27;: False, &#x27;import_models&#x27;: False, &#x27;timeout&#x27;: 10, &#x27;plain&#x27;: False, &#x27;nobanner&#x27;: False}&gt;</div></td></tr><tr><td style="font-weight:bold;vertical-align:top;">db_sessions</td><td style="vertical-align:top;">:</td><td><div>set([])</div></td></tr><tr><td style="font-weight:bold;vertical-align:top;">debugging</td><td style="vertical-align:top;">:</td><td><div>True</div></td></tr><tr><td style="font-weight:bold;vertical-align:top;">gluon_parent</td><td style="vertical-align:top;">:</td><td><div>/Users/Barton/Downloads/web2py/web2py.app/Contents/Resources</div></td></tr><tr><td style="font-weight:bold;vertical-align:top;">is_jython</td><td style="vertical-align:top;">:</td><td><div>False</div></td></tr><tr><td style="font-weight:bold;vertical-align:top;">is_pypy</td><td style="vertical-align:top;">:</td><td><div>False</div></td></tr><tr><td style="font-weight:bold;vertical-align:top;">is_source</td><td style="vertical-align:top;">:</td><td><div>True</div></td></tr><tr><td style="font-weight:bold;vertical-align:top;">local_hosts</td><td style="vertical-align:top;">:</td><td><div><table><tr><td><div>fe80::7ed1:c3ff:fe90:5ac0%en1</div></td></tr><tr><td><div>172.16.42.4</div></td></tr><tr><td><div>Elizabeths-MacBook-Pro.local</div></td></tr><tr><td><div>::ffff:127.0.0.1</div></td></tr><tr><td><div>::1</div></td></tr><tr><td><div>127.0.0.1</div></td></tr></table></div></td></tr><tr><td style="font-weight:bold;vertical-align:top;">web2py_version</td><td style="vertical-align:top;">:</td><td><div>2.13.4-stable+timestamp.2015.12.26.04.59.39</div></td></tr></table></div></td></tr><tr><td style="font-weight:bold;vertical-align:top;">is_https</td><td style="vertical-align:top;">:</td><td><div>False</div></td></tr><tr><td style="font-weight:bold;vertical-align:top;">is_local</td><td style="vertical-align:top;">:</td><td><div>True</div></td></tr><tr><td style="font-weight:bold;vertical-align:top;">is_restful</td><td style="vertical-align:top;">:</td><td><div>False</div></td></tr><tr><td style="font-weight:bold;vertical-align:top;">is_scheduler</td><td style="vertical-align:top;">:</td><td><div>False</div></td></tr><tr><td style="font-weight:bold;vertical-align:top;">is_shell</td><td style="vertical-align:top;">:</td><td><div>False</div></td></tr><tr><td style="font-weight:bold;vertical-align:top;">now</td><td style="vertical-align:top;">:</td><td><div>datetime.datetime(2016, 12, 28, 22, 17, 11, 936803)</div></td></tr><tr><td style="font-weight:bold;vertical-align:top;">raw_args</td><td style="vertical-align:top;">:</td><td><div></div></td></tr><tr><td style="font-weight:bold;vertical-align:top;">raw_extension</td><td style="vertical-align:top;">:</td><td><div>None</div></td></tr><tr><td style="font-weight:bold;vertical-align:top;">url</td><td style="vertical-align:top;">:</td><td><div>/sfitz/appadmin/hooks</div></td></tr><tr><td style="font-weight:bold;vertical-align:top;">utcnow</td><td style="vertical-align:top;">:</td><td><div>datetime.datetime(2016, 12, 29, 6, 17, 11, 936816)</div></td></tr><tr><td style="font-weight:bold;vertical-align:top;">wsgi</td><td style="vertical-align:top;">:</td><td><div>&lt;gluon.main.LazyWSGI object at 0x108f91490&gt;</div></td></tr></table></div>'
tRp58
sS'frames'
p59
(lp60
(dp61
S'file'
p62
S'/Users/Barton/Downloads/web2py/web2py.app/Contents/Resources/gluon/restricted.py'
p63
sS'dump'
p64
(dp65
sS'lnum'
p66
I227
sS'lines'
p67
(dp68
I224
S'            ccode = code'
p69
sI225
S'        else:'
p70
sI226
S'            ccode = compile2(code, layer)'
p71
sI227
S'        exec ccode in environment'
p72
sI228
S'    except HTTP:'
p73
sI229
S'        raise'
p74
sI230
S'    except RestrictedError:'
p75
sI231
S'        # do not encapsulate (obfuscate) the original RestrictedError'
p76
sI222
S'    try:'
p77
sI223
S'        if isinstance(code, types.CodeType):'
p78
ssS'call'
p79
S'(code=\'db = DAL("sqlite://storage.sqlite")\\n\\ndb.define_t...writable = db.pastorder.shipped.readable = False\\n\', environment={\'A\': <class \'gluon.html.A\'>, \'ANY_OF\': <class \'gluon.validators.ANY_OF\'>, \'ASSIGNJS\': <function ASSIGNJS>, \'B\': <class \'gluon.html.B\'>, \'BEAUTIFY\': <class \'gluon.html.BEAUTIFY\'>, \'BODY\': <class \'gluon.html.BODY\'>, \'BR\': <class \'gluon.html.BR\'>, \'BUTTON\': <class \'gluon.html.BUTTON\'>, \'CAT\': <class \'gluon.html.CAT\'>, \'CENTER\': <class \'gluon.html.CENTER\'>, ...}, layer=\'/Users/Barton/Downloads/web2py/web2py.app/Contents/Resources/applications/sfitz/models/db.py\')'
p80
sS'func'
p81
S'restricted'
p82
sa(dp83
g62
S'/Users/Barton/Downloads/web2py/web2py.app/Contents/Resources/applications/sfitz/models/db.py'
p84
sg64
(dp85
sg66
I30
sg67
(dp86
I32
S'db.orderform.name.requires = IS_NOT_EMPTY()'
p87
sI33
S'db.orderform.address.requires = IS_NOT_EMPTY()'
p88
sI34
S'db.orderform.city.requires = IS_NOT_EMPTY()'
p89
sI25
S"                Field('shipped', 'boolean'))"
p90
sI26
S''
sI27
S''
sI28
S"db.orderform.item_id.requires = IS_IN_DB(db, db.item.id, '%(item_id)s')"
p91
sI29
S"db.pastorder.item_id.requires = IS_IN_DB(db, db.item.id, '%(item_id)s')"
p92
sI30
S"db.pastorder.order_if.requires = IS_IN_DB(db, db.orderform.id, '%(item_id)s')"
p93
sI31
S''
ssg79
S'()'
p94
sg81
S'<module>'
p95
sasS'pyver'
p96
S'Python 2.7.3: /Users/Barton/Downloads/web2py/web2py.app/Contents/MacOS/python (prefix: /Users/Barton/Downloads/web2py/web2py.app/Contents/Resources)'
p97
sS'session'
p98
g57
(S's:\x01\x00\x00<div><table><tr><td style="font-weight:bold;vertical-align:top;">last_orderby</td><td style="vertical-align:top;">:</td><td><div>None</div></td></tr><tr><td style="font-weight:bold;vertical-align:top;">last_query</td><td style="vertical-align:top;">:</td><td><div>db.orderform.id&gt;0</div></td></tr></table></div>'
tRp99
sS'etype'
p100
S"<type 'exceptions.AttributeError'>"
p101
sS'date'
p102
S'Wed Dec 28 22:17:12 2016'
p103
sS'response'
p104
g57
(S's1\x18\x00\x00<div><table><tr><td style="font-weight:bold;vertical-align:top;">body</td><td style="vertical-align:top;">:</td><td><div>&lt;cStringIO.StringO object at 0x1056cb1b8&gt;</div></td></tr><tr><td style="font-weight:bold;vertical-align:top;">cookies</td><td style="vertical-align:top;">:</td><td><div><table><tr><td style="font-weight:bold;vertical-align:top;">session_id_sfitz</td><td style="vertical-align:top;">:</td><td><div>127.0.0.1-5e561e01-ba20-40ef-99d6-8794d72e4500<table><tr><td style="font-weight:bold;vertical-align:top;">comment</td><td style="vertical-align:top;">:</td><td><div></div></td></tr><tr><td style="font-weight:bold;vertical-align:top;">domain</td><td style="vertical-align:top;">:</td><td><div></div></td></tr><tr><td style="font-weight:bold;vertical-align:top;">expires</td><td style="vertical-align:top;">:</td><td><div></div></td></tr><tr><td style="font-weight:bold;vertical-align:top;">httponly</td><td style="vertical-align:top;">:</td><td><div></div></td></tr><tr><td style="font-weight:bold;vertical-align:top;">max-age</td><td style="vertical-align:top;">:</td><td><div></div></td></tr><tr><td style="font-weight:bold;vertical-align:top;">path</td><td style="vertical-align:top;">:</td><td><div>/</div></td></tr><tr><td style="font-weight:bold;vertical-align:top;">secure</td><td style="vertical-align:top;">:</td><td><div></div></td></tr><tr><td style="font-weight:bold;vertical-align:top;">version</td><td style="vertical-align:top;">:</td><td><div></div></td></tr></table></div></td></tr></table></div></td></tr><tr><td style="font-weight:bold;vertical-align:top;">delimiters</td><td style="vertical-align:top;">:</td><td><div><table><tr><td><div>{{</div></td></tr><tr><td><div>}}</div></td></tr></table></div></td></tr><tr><td style="font-weight:bold;vertical-align:top;">files</td><td style="vertical-align:top;">:</td><td><div><table></table></div></td></tr><tr><td style="font-weight:bold;vertical-align:top;">flash</td><td style="vertical-align:top;">:</td><td><div></div></td></tr><tr><td style="font-weight:bold;vertical-align:top;">form_label_separator</td><td style="vertical-align:top;">:</td><td><div>: </div></td></tr><tr><td style="font-weight:bold;vertical-align:top;">formstyle</td><td style="vertical-align:top;">:</td><td><div>table3cols</div></td></tr><tr><td style="font-weight:bold;vertical-align:top;">generic_patterns</td><td style="vertical-align:top;">:</td><td><div><table><tr><td><div>*</div></td></tr></table></div></td></tr><tr><td style="font-weight:bold;vertical-align:top;">headers</td><td style="vertical-align:top;">:</td><td><div><table><tr><td style="font-weight:bold;vertical-align:top;">X-Powered-By</td><td style="vertical-align:top;">:</td><td><div>web2py</div></td></tr></table></div></td></tr><tr><td style="font-weight:bold;vertical-align:top;">menu</td><td style="vertical-align:top;">:</td><td><div><table></table></div></td></tr><tr><td style="font-weight:bold;vertical-align:top;">meta</td><td style="vertical-align:top;">:</td><td><div><table></table></div></td></tr><tr><td style="font-weight:bold;vertical-align:top;">models_to_run</td><td style="vertical-align:top;">:</td><td><div><table><tr><td><div>^\\w+\\.py$</div></td></tr><tr><td><div>^appadmin/\\w+\\.py$</div></td></tr><tr><td><div>^appadmin/hooks/\\w+\\.py$</div></td></tr></table></div></td></tr><tr><td style="font-weight:bold;vertical-align:top;">postprocessing</td><td style="vertical-align:top;">:</td><td><div><table></table></div></td></tr><tr><td style="font-weight:bold;vertical-align:top;">session_client</td><td style="vertical-align:top;">:</td><td><div>127.0.0.1</div></td></tr><tr><td style="font-weight:bold;vertical-align:top;">session_cookie_compression_level</td><td style="vertical-align:top;">:</td><td><div>None</div></td></tr><tr><td style="font-weight:bold;vertical-align:top;">session_cookie_expires</td><td style="vertical-align:top;">:</td><td><div>None</div></td></tr><tr><td style="font-weight:bold;vertical-align:top;">session_cookie_key</td><td style="vertical-align:top;">:</td><td><div>None</div></td></tr><tr><td style="font-weight:bold;vertical-align:top;">session_data_name</td><td style="vertical-align:top;">:</td><td><div>session_data_sfitz</div></td></tr><tr><td style="font-weight:bold;vertical-align:top;">session_file</td><td style="vertical-align:top;">:</td><td><div>&lt;open file &#x27;/Users/Barton/Downloads/web2py/web2py.app/Contents/Resources/applications/sfitz/sessions/143/18a/127.0.0.1-5e561e01-ba20-40ef-99d6-8794d72e4500&#x27;, mode &#x27;rb+&#x27; at 0x108f821e0&gt;</div></td></tr><tr><td style="font-weight:bold;vertical-align:top;">session_filename</td><td style="vertical-align:top;">:</td><td><div>/Users/Barton/Downloads/web2py/web2py.app/Contents/Resources/applications/sfitz/sessions/127.0.0.1-5e561e01-ba20-40ef-99d6-8794d72e4500</div></td></tr><tr><td style="font-weight:bold;vertical-align:top;">session_hash</td><td style="vertical-align:top;">:</td><td><div>cbf2f92cea94a7e3772b3cf86fa60e53</div></td></tr><tr><td style="font-weight:bold;vertical-align:top;">session_id</td><td style="vertical-align:top;">:</td><td><div>127.0.0.1-5e561e01-ba20-40ef-99d6-8794d72e4500</div></td></tr><tr><td style="font-weight:bold;vertical-align:top;">session_id_name</td><td style="vertical-align:top;">:</td><td><div>session_id_sfitz</div></td></tr><tr><td style="font-weight:bold;vertical-align:top;">session_locked</td><td style="vertical-align:top;">:</td><td><div>True</div></td></tr><tr><td style="font-weight:bold;vertical-align:top;">session_masterapp</td><td style="vertical-align:top;">:</td><td><div>sfitz</div></td></tr><tr><td style="font-weight:bold;vertical-align:top;">session_new</td><td style="vertical-align:top;">:</td><td><div>False</div></td></tr><tr><td style="font-weight:bold;vertical-align:top;">session_storage_type</td><td style="vertical-align:top;">:</td><td><div>file</div></td></tr><tr><td style="font-weight:bold;vertical-align:top;">status</td><td style="vertical-align:top;">:</td><td><div>200</div></td></tr><tr><td style="font-weight:bold;vertical-align:top;">view</td><td style="vertical-align:top;">:</td><td><div>appadmin/hooks.html</div></td></tr></table></div>'
tRp105
sS'locals'
p106
(dp107
S'OBJECT'
p108
S"<class 'gluon.html.OBJECT'>"
p109
sS'SQLDB'
p110
S"<class 'pydal.base.DAL'>"
p111
sg98
S"<Storage {'_formkey[sale/create]': ['c0a49fec-d1...ate]': ['b1f1d28a-fbb0-46ad-9b38-adbd6769fbeb']}>"
p112
sS'LINK'
p113
S"<class 'gluon.html.LINK'>"
p114
sS'BR'
p115
S"<class 'gluon.html.BR'>"
p116
sS'local_import'
p117
S'<function <lambda>>'
p118
sS'OPTGROUP'
p119
S"<class 'gluon.html.OPTGROUP'>"
p120
sS'PRE'
p121
S"<class 'gluon.html.PRE'>"
p122
sS'IS_INT_IN_RANGE'
p123
S"<class 'gluon.validators.IS_INT_IN_RANGE'>"
p124
sS'IS_LOWER'
p125
S"<class 'gluon.validators.IS_LOWER'>"
p126
sS'IS_STRONG'
p127
S"<class 'gluon.validators.IS_STRONG'>"
p128
sS'cache'
p129
S'<gluon.cache.Cache object>'
p130
sS'IS_IN_DB'
p131
S"<class 'gluon.validators.IS_IN_DB'>"
p132
sS'TAG'
p133
S'<gluon.html.__TAG__ object>'
p134
sS'SQLField'
p135
S"<class 'pydal.objects.Field'>"
p136
sS'BODY'
p137
S"<class 'gluon.html.BODY'>"
p138
sS'IS_DATE_IN_RANGE'
p139
S"<class 'gluon.validators.IS_DATE_IN_RANGE'>"
p140
sS'TH'
p141
S"<class 'gluon.html.TH'>"
p142
sS'URL'
p143
S'<function URL>'
p144
sS'__file__'
p145
S"'/Users/Barton/Downloads/web2py/web2py.app/Contents/Resources/applications/sfitz/models/db.py'"
p146
sS'db'
p147
S'<DAL uri="sqlite://storage.sqlite">'
p148
sS'P'
S"<class 'gluon.html.P'>"
p149
sS'TFOOT'
p150
S"<class 'gluon.html.TFOOT'>"
p151
sS'XHTML'
p152
S"<class 'gluon.html.XHTML'>"
p153
sS'ON'
p154
S'True'
p155
sS'OL'
p156
S"<class 'gluon.html.OL'>"
p157
sS'TEXTAREA'
p158
S"<class 'gluon.html.TEXTAREA'>"
p159
sS'MENU'
p160
S"<class 'gluon.html.MENU'>"
p161
sS'LOAD'
p162
S'<function LOAD>'
p163
sS'CODE'
p164
S"<class 'gluon.html.CODE'>"
p165
sS'HTTP'
p166
S"<class 'gluon.http.HTTP'>"
p167
sS'HR'
p168
S"<class 'gluon.html.HR'>"
p169
sS'IS_DATETIME'
p170
S"<class 'gluon.validators.IS_DATETIME'>"
p171
sS'HEAD'
p172
S"<class 'gluon.html.HEAD'>"
p173
sS'LABEL'
p174
S"<class 'gluon.html.LABEL'>"
p175
sS'CLEANUP'
p176
S"<class 'gluon.validators.CLEANUP'>"
p177
sS'SELECT'
p178
S"<class 'gluon.html.SELECT'>"
p179
sS'CENTER'
p180
S"<class 'gluon.html.CENTER'>"
p181
sS'__builtins__'
p182
S"{'ArithmeticError': <type 'exceptions.ArithmeticError'>, 'AssertionError': <type 'exceptions.AssertionError'>, 'AttributeError': <type 'exceptions.AttributeError'>, 'BaseException': <type 'exceptions.BaseException'>, 'BufferError': <type 'exceptions.BufferError'>, 'BytesWarning': <type 'exceptions.BytesWarning'>, 'DeprecationWarning': <type 'exceptions.DeprecationWarning'>, 'EOFError': <type 'exceptions.EOFError'>, 'Ellipsis': Ellipsis, 'EnvironmentError': <type 'exceptions.EnvironmentError'>, ...}"
p183
sS'HTML'
p184
S"<class 'gluon.html.HTML'>"
p185
sS'SQLFORM'
p186
S"<class 'gluon.sqlhtml.SQLFORM'>"
p187
sS'EM'
p188
S"<class 'gluon.html.EM'>"
p189
sS'redirect'
p190
S'<function redirect>'
p191
sS'FIELDSET'
p192
S"<class 'gluon.html.FIELDSET'>"
p193
sS'IS_EQUAL_TO'
p194
S"<class 'gluon.validators.IS_EQUAL_TO'>"
p195
sS'embed64'
p196
S'<function embed64>'
p197
sS'IS_LIST_OF'
p198
S"<class 'gluon.validators.IS_LIST_OF'>"
p199
sS'__name__'
p200
S"'__restricted__'"
p201
sS'EMBED'
p202
S"<class 'gluon.html.EMBED'>"
p203
sS'FORM'
p204
S"<class 'gluon.html.FORM'>"
p205
sS'H2'
p206
S"<class 'gluon.html.H2'>"
p207
sS'H3'
p208
S"<class 'gluon.html.H3'>"
p209
sS'BUTTON'
p210
S"<class 'gluon.html.BUTTON'>"
p211
sS'H1'
p212
S"<class 'gluon.html.H1'>"
p213
sS'H6'
p214
S"<class 'gluon.html.H6'>"
p215
sS'H4'
p216
S"<class 'gluon.html.H4'>"
p217
sS'H5'
p218
S"<class 'gluon.html.H5'>"
p219
sS'UL'
p220
S"<class 'gluon.html.UL'>"
p221
sS'IS_UPPER'
p222
S"<class 'gluon.validators.IS_UPPER'>"
p223
sS'xmlescape'
p224
S'<function xmlescape>'
p225
sS'IS_TIME'
p226
S"<class 'gluon.validators.IS_TIME'>"
p227
sS'OPTION'
p228
S"<class 'gluon.html.OPTION'>"
p229
sS'TITLE'
p230
S"<class 'gluon.html.TITLE'>"
p231
sS'CRYPT'
p232
S"<class 'gluon.validators.CRYPT'>"
p233
sS'IS_EMPTY_OR'
p234
S"<class 'gluon.validators.IS_EMPTY_OR'>"
p235
sS'MARKMIN'
p236
S"<class 'gluon.html.MARKMIN'>"
p237
sS'INPUT'
p238
S"<class 'gluon.html.INPUT'>"
p239
sS'STRONG'
p240
S"<class 'gluon.html.STRONG'>"
p241
sS'COL'
p242
S"<class 'gluon.html.COL'>"
p243
sS'SCRIPT'
p244
S"<class 'gluon.html.SCRIPT'>"
p245
sS'TABLE'
p246
S"<class 'gluon.html.TABLE'>"
p247
sS'IS_IPV4'
p248
S"<class 'gluon.validators.IS_IPV4'>"
p249
sS'IS_LENGTH'
p250
S"<class 'gluon.validators.IS_LENGTH'>"
p251
sS'IS_IPV6'
p252
S"<class 'gluon.validators.IS_IPV6'>"
p253
sS'XML'
p254
S"<class 'gluon.html.XML'>"
p255
sS'B'
S"<class 'gluon.html.B'>"
p256
sS'IMG'
p257
S"<class 'gluon.html.IMG'>"
p258
sS'SQLTABLE'
p259
S"<class 'gluon.sqlhtml.SQLTABLE'>"
p260
sS'IS_MATCH'
p261
S"<class 'gluon.validators.IS_MATCH'>"
p262
sS'IS_ALPHANUMERIC'
p263
S"<class 'gluon.validators.IS_ALPHANUMERIC'>"
p264
sS'SPAN'
p265
S"<class 'gluon.html.SPAN'>"
p266
sS'IS_JSON'
p267
S"<class 'gluon.validators.IS_JSON'>"
p268
sS'IS_IPADDRESS'
p269
S"<class 'gluon.validators.IS_IPADDRESS'>"
p270
sS'IS_SLUG'
p271
S"<class 'gluon.validators.IS_SLUG'>"
p272
sS'BEAUTIFY'
p273
S"<class 'gluon.html.BEAUTIFY'>"
p274
sS'META'
p275
S"<class 'gluon.html.META'>"
p276
sS'IS_DATE'
p277
S"<class 'gluon.validators.IS_DATE'>"
p278
sS'IS_EMAIL'
p279
S"<class 'gluon.validators.IS_EMAIL'>"
p280
sS'IS_NOT_EMPTY'
p281
S"<class 'gluon.validators.IS_NOT_EMPTY'>"
p282
sS'IS_FLOAT_IN_RANGE'
p283
S"<class 'gluon.validators.IS_FLOAT_IN_RANGE'>"
p284
sS'TBODY'
p285
S"<class 'gluon.html.TBODY'>"
p286
sS'CAT'
p287
S"<class 'gluon.html.CAT'>"
p288
sS'Field'
p289
S"<class 'pydal.objects.Field'>"
p290
sS'IS_LIST_OF_EMAILS'
p291
S"<class 'gluon.validators.IS_LIST_OF_EMAILS'>"
p292
sS'DIV'
p293
S"<class 'gluon.html.DIV'>"
p294
sS'LEGEND'
p295
S"<class 'gluon.html.LEGEND'>"
p296
sS'COLGROUP'
p297
S"<class 'gluon.html.COLGROUP'>"
p298
sS'DAL'
p299
S"<class 'pydal.base.DAL'>"
p300
sS'ASSIGNJS'
p301
S'<function ASSIGNJS>'
p302
sS'TR'
p303
S"<class 'gluon.html.TR'>"
p304
sS'LI'
p305
S"<class 'gluon.html.LI'>"
p306
sS'IFRAME'
p307
S"<class 'gluon.html.IFRAME'>"
p308
sS'TD'
p309
S"<class 'gluon.html.TD'>"
p310
sS'IS_URL'
p311
S"<class 'gluon.validators.IS_URL'>"
p312
sS'A'
S"<class 'gluon.html.A'>"
p313
sS'STYLE'
p314
S"<class 'gluon.html.STYLE'>"
p315
sS'IS_DATETIME_IN_RANGE'
p316
S"<class 'gluon.validators.IS_DATETIME_IN_RANGE'>"
p317
sS'IS_IMAGE'
p318
S"<class 'gluon.validators.IS_IMAGE'>"
p319
sS'I'
S"<class 'gluon.html.I'>"
p320
sS'IS_NOT_IN_DB'
p321
S"<class 'gluon.validators.IS_NOT_IN_DB'>"
p322
sg104
S"<Storage {'body': <cStringIO.StringO object at 0... at 0x108f95b18>, 'view': 'appadmin/hooks.html'}>"
p323
sS'THEAD'
p324
S"<class 'gluon.html.THEAD'>"
p325
sS'ANY_OF'
p326
S"<class 'gluon.validators.ANY_OF'>"
p327
sS'IS_NULL_OR'
p328
S"<class 'gluon.validators.IS_EMPTY_OR'>"
p329
sg56
S"<Storage {'_vars': None, 'function': 'hooks', 'c...2py.app/Contents/Resources/applications/sfitz/'}>"
p330
sS'IS_EXPR'
p331
S"<class 'gluon.validators.IS_EXPR'>"
p332
sS'IS_IN_SET'
p333
S"<class 'gluon.validators.IS_IN_SET'>"
p334
sS'IS_UPLOAD_FILENAME'
p335
S"<class 'gluon.validators.IS_UPLOAD_FILENAME'>"
p336
sS'IS_DECIMAL_IN_RANGE'
p337
S"<class 'gluon.validators.IS_DECIMAL_IN_RANGE'>"
p338
sS'TT'
p339
S"<class 'gluon.html.TT'>"
p340
sS'T'
S'<gluon.languages.translator object>'
p341
sssS'traceback'
p342
S'Traceback (most recent call last):\n  File "/Users/Barton/Downloads/web2py/web2py.app/Contents/Resources/gluon/restricted.py", line 227, in restricted\n  File "/Users/Barton/Downloads/web2py/web2py.app/Contents/Resources/applications/sfitz/models/db.py", line 30, in <module>\nAttributeError: \'Table\' object has no attribute \'order_if\'\n'
p343
s.